target datalayout = "e-m:e-p270:32:32-p271:32:32-p272:64:64-i64:64-i128:128-f80:128-n8:16:32:64-S128"
target triple = "x86_64-pc-linux-gnu"

%struct.quic_stream_map_st = type { ptr, %struct.quic_stream_list_node_st, %struct.quic_stream_list_node_st, %struct.quic_stream_list_node_st, i64, i64, i64, i64, i64, ptr, ptr, ptr, ptr, ptr, i32 }
%struct.quic_stream_list_node_st = type { ptr, ptr }
%struct.quic_stream_st = type { %struct.quic_stream_list_node_st, %struct.quic_stream_list_node_st, %struct.quic_stream_list_node_st, ptr, i64, i64, i64, i64, i64, i64, i64, ptr, ptr, %struct.quic_txfc_st, %struct.quic_rxfc_st, i64 }
%struct.quic_txfc_st = type { ptr, i64, i64, i8 }
%struct.quic_rxfc_st = type { i64, i64, i64, i64, i64, i64, i64, %struct.OSSL_TIME, ptr, ptr, ptr, i8, i8, i8, i8 }
%struct.OSSL_TIME = type { i64 }

@.str = private unnamed_addr constant [38 x i8] c"../openssl/ssl/quic/quic_stream_map.c\00", align 1

; Function Attrs: inlinehint nounwind uwtable
define internal ptr @lh_QUIC_STREAM_delete(ptr noundef %0, ptr noundef %1) #1 {
  %3 = alloca ptr, align 8
  %4 = alloca ptr, align 8
  store ptr %0, ptr %3, align 8, !tbaa !46
  store ptr %1, ptr %4, align 8, !tbaa !37
  %5 = load ptr, ptr %3, align 8, !tbaa !46
  %6 = load ptr, ptr %4, align 8, !tbaa !37
  %7 = call ptr @OPENSSL_LH_delete(ptr noundef %5, ptr noundef %6)
  ret ptr %7
}

; Function Attrs: nounwind uwtable
define internal void @list_remove(ptr noundef %0, ptr noundef %1) #0 {
  %3 = alloca ptr, align 8
  %4 = alloca ptr, align 8
  store ptr %0, ptr %3, align 8, !tbaa !54
  store ptr %1, ptr %4, align 8, !tbaa !54
  %5 = load ptr, ptr %4, align 8, !tbaa !54
  %6 = getelementptr inbounds nuw %struct.quic_stream_list_node_st, ptr %5, i32 0, i32 1
  %7 = load ptr, ptr %6, align 8, !tbaa !55
  %8 = load ptr, ptr %4, align 8, !tbaa !54
  %9 = getelementptr inbounds nuw %struct.quic_stream_list_node_st, ptr %8, i32 0, i32 0
  %10 = load ptr, ptr %9, align 8, !tbaa !56
  %11 = getelementptr inbounds nuw %struct.quic_stream_list_node_st, ptr %10, i32 0, i32 1
  store ptr %7, ptr %11, align 8, !tbaa !55
  %12 = load ptr, ptr %4, align 8, !tbaa !54
  %13 = getelementptr inbounds nuw %struct.quic_stream_list_node_st, ptr %12, i32 0, i32 0
  %14 = load ptr, ptr %13, align 8, !tbaa !56
  %15 = load ptr, ptr %4, align 8, !tbaa !54
  %16 = getelementptr inbounds nuw %struct.quic_stream_list_node_st, ptr %15, i32 0, i32 1
  %17 = load ptr, ptr %16, align 8, !tbaa !55
  %18 = getelementptr inbounds nuw %struct.quic_stream_list_node_st, ptr %17, i32 0, i32 0
  store ptr %14, ptr %18, align 8, !tbaa !56
  %19 = load ptr, ptr %4, align 8, !tbaa !54
  %20 = getelementptr inbounds nuw %struct.quic_stream_list_node_st, ptr %19, i32 0, i32 0
  store ptr null, ptr %20, align 8, !tbaa !56
  %21 = load ptr, ptr %4, align 8, !tbaa !54
  %22 = getelementptr inbounds nuw %struct.quic_stream_list_node_st, ptr %21, i32 0, i32 1
  store ptr null, ptr %22, align 8, !tbaa !55
  ret void
}

; Function Attrs: nounwind uwtable
define void @ossl_quic_stream_map_release(ptr noundef %0, ptr noundef %1) #0 {
  %3 = alloca ptr, align 8
  %4 = alloca ptr, align 8
  store ptr %0, ptr %3, align 8, !tbaa !3
  store ptr %1, ptr %4, align 8, !tbaa !37
  %5 = load ptr, ptr %4, align 8, !tbaa !37
  %6 = icmp eq ptr %5, null
  br i1 %6, label %7, label %8

7:                                                ; preds = %2
  br label %58

8:                                                ; preds = %2
  %9 = load ptr, ptr %4, align 8, !tbaa !37
  %10 = getelementptr inbounds nuw %struct.quic_stream_st, ptr %9, i32 0, i32 0
  %11 = getelementptr inbounds nuw %struct.quic_stream_list_node_st, ptr %10, i32 0, i32 1
  %12 = load ptr, ptr %11, align 8, !tbaa !49
  %13 = icmp ne ptr %12, null
  br i1 %13, label %14, label %19

14:                                               ; preds = %8
  %15 = load ptr, ptr %3, align 8, !tbaa !3
  %16 = getelementptr inbounds nuw %struct.quic_stream_map_st, ptr %15, i32 0, i32 1
  %17 = load ptr, ptr %4, align 8, !tbaa !37
  %18 = getelementptr inbounds nuw %struct.quic_stream_st, ptr %17, i32 0, i32 0
  call void @list_remove(ptr noundef %16, ptr noundef %18)
  br label %19

19:                                               ; preds = %14, %8
  %20 = load ptr, ptr %4, align 8, !tbaa !37
  %21 = getelementptr inbounds nuw %struct.quic_stream_st, ptr %20, i32 0, i32 1
  %22 = getelementptr inbounds nuw %struct.quic_stream_list_node_st, ptr %21, i32 0, i32 1
  %23 = load ptr, ptr %22, align 8, !tbaa !50
  %24 = icmp ne ptr %23, null
  br i1 %24, label %25, label %30

25:                                               ; preds = %19
  %26 = load ptr, ptr %3, align 8, !tbaa !3
  %27 = getelementptr inbounds nuw %struct.quic_stream_map_st, ptr %26, i32 0, i32 2
  %28 = load ptr, ptr %4, align 8, !tbaa !37
  %29 = getelementptr inbounds nuw %struct.quic_stream_st, ptr %28, i32 0, i32 1
  call void @list_remove(ptr noundef %27, ptr noundef %29)
  br label %30

30:                                               ; preds = %25, %19
  %31 = load ptr, ptr %4, align 8, !tbaa !37
  %32 = getelementptr inbounds nuw %struct.quic_stream_st, ptr %31, i32 0, i32 2
  %33 = getelementptr inbounds nuw %struct.quic_stream_list_node_st, ptr %32, i32 0, i32 1
  %34 = load ptr, ptr %33, align 8, !tbaa !51
  %35 = icmp ne ptr %34, null
  br i1 %35, label %36, label %41

36:                                               ; preds = %30
  %37 = load ptr, ptr %3, align 8, !tbaa !3
  %38 = getelementptr inbounds nuw %struct.quic_stream_map_st, ptr %37, i32 0, i32 3
  %39 = load ptr, ptr %4, align 8, !tbaa !37
  %40 = getelementptr inbounds nuw %struct.quic_stream_st, ptr %39, i32 0, i32 2
  call void @list_remove(ptr noundef %38, ptr noundef %40)
  br label %41

41:                                               ; preds = %36, %30
  %42 = load ptr, ptr %4, align 8, !tbaa !37
  %43 = getelementptr inbounds nuw %struct.quic_stream_st, ptr %42, i32 0, i32 11
  %44 = load ptr, ptr %43, align 8, !tbaa !52
  call void @ossl_quic_sstream_free(ptr noundef %44)
  %45 = load ptr, ptr %4, align 8, !tbaa !37
  %46 = getelementptr inbounds nuw %struct.quic_stream_st, ptr %45, i32 0, i32 11
  store ptr null, ptr %46, align 8, !tbaa !52
  %47 = load ptr, ptr %4, align 8, !tbaa !37
  %48 = getelementptr inbounds nuw %struct.quic_stream_st, ptr %47, i32 0, i32 12
  %49 = load ptr, ptr %48, align 8, !tbaa !53
  call void @ossl_quic_rstream_free(ptr noundef %49)
  %50 = load ptr, ptr %4, align 8, !tbaa !37
  %51 = getelementptr inbounds nuw %struct.quic_stream_st, ptr %50, i32 0, i32 12
  store ptr null, ptr %51, align 8, !tbaa !53
  %52 = load ptr, ptr %3, align 8, !tbaa !3
  %53 = getelementptr inbounds nuw %struct.quic_stream_map_st, ptr %52, i32 0, i32 0
  %54 = load ptr, ptr %53, align 8, !tbaa !13
  %55 = load ptr, ptr %4, align 8, !tbaa !37
  %56 = call ptr @lh_QUIC_STREAM_delete(ptr noundef %54, ptr noundef %55)
  %57 = load ptr, ptr %4, align 8, !tbaa !37
  call void @CRYPTO_free(ptr noundef %57, ptr noundef @.str, i32 noundef 194)
  br label %58

58:                                               ; preds = %41, %7
  ret void
}