; Function Attrs: nounwind uwtable
define void @ossl_quic_stream_map_release(ptr noundef readonly captures(none) %0, ptr noundef %1) local_unnamed_addr #0 {
  %3 = icmp eq ptr %1, null
  br i1 %3, label %31, label %4

4:                                                ; preds = %2
  %5 = getelementptr inbounds nuw i8, ptr %1, i64 8
  %6 = load ptr, ptr %5, align 8, !tbaa !36
  %.not = icmp eq ptr %6, null
  br i1 %.not, label %10, label %7

7:                                                ; preds = %4
  %8 = load ptr, ptr %1, align 8, !tbaa !37
  %9 = getelementptr inbounds nuw i8, ptr %8, i64 8
  store ptr %6, ptr %9, align 8, !tbaa !38
  store ptr %8, ptr %6, align 8, !tbaa !37
  tail call void @llvm.memset.p0.i64(ptr noundef nonnull align 8 dereferenceable(16) %1, i8 0, i64 16, i1 false)
  br label %10

10:                                               ; preds = %7, %4
  %11 = getelementptr inbounds nuw i8, ptr %1, i64 24
  %12 = load ptr, ptr %11, align 8, !tbaa !39
  %.not17 = icmp eq ptr %12, null
  br i1 %.not17, label %17, label %13

13:                                               ; preds = %10
  %14 = getelementptr inbounds nuw i8, ptr %1, i64 16
  %15 = load ptr, ptr %14, align 8, !tbaa !37
  %16 = getelementptr inbounds nuw i8, ptr %15, i64 8
  store ptr %12, ptr %16, align 8, !tbaa !38
  store ptr %15, ptr %12, align 8, !tbaa !37
  tail call void @llvm.memset.p0.i64(ptr noundef nonnull align 8 dereferenceable(16) %14, i8 0, i64 16, i1 false)
  br label %17

17:                                               ; preds = %13, %10
  %18 = getelementptr inbounds nuw i8, ptr %1, i64 40
  %19 = load ptr, ptr %18, align 8, !tbaa !40
  %.not18 = icmp eq ptr %19, null
  br i1 %.not18, label %24, label %20

20:                                               ; preds = %17
  %21 = getelementptr inbounds nuw i8, ptr %1, i64 32
  %22 = load ptr, ptr %21, align 8, !tbaa !37
  %23 = getelementptr inbounds nuw i8, ptr %22, i64 8
  store ptr %19, ptr %23, align 8, !tbaa !38
  store ptr %22, ptr %19, align 8, !tbaa !37
  tail call void @llvm.memset.p0.i64(ptr noundef nonnull align 8 dereferenceable(16) %21, i8 0, i64 16, i1 false)
  br label %24

24:                                               ; preds = %20, %17
  %25 = getelementptr inbounds nuw i8, ptr %1, i64 112
  %26 = load ptr, ptr %25, align 8, !tbaa !41
  tail call void @ossl_quic_sstream_free(ptr noundef %26) #13
  store ptr null, ptr %25, align 8, !tbaa !41
  %27 = getelementptr inbounds nuw i8, ptr %1, i64 120
  %28 = load ptr, ptr %27, align 8, !tbaa !42
  tail call void @ossl_quic_rstream_free(ptr noundef %28) #13
  store ptr null, ptr %27, align 8, !tbaa !42
  %29 = load ptr, ptr %0, align 8, !tbaa !3
  %30 = tail call ptr @OPENSSL_LH_delete(ptr noundef %29, ptr noundef nonnull %1) #13
  tail call void @CRYPTO_free(ptr noundef nonnull %1, ptr noundef nonnull @.str, i32 noundef 194) #13
  br label %31

31:                                               ; preds = %2, %24
  ret void
}